; Function Attrs: mustprogress uwtable
define hidden void @_ZN4cvc58internal6theory2uf27BitVectorConversionTypeRule14preComputeTypeEPNS0_11NodeManagerENS0_12NodeTemplateILb0EEE(ptr dead_on_unwind noalias writable sret(%"class.cvc5::internal::TypeNode") align 8 %0, ptr noundef %1, ptr noundef %2) local_unnamed_addr #3 align 2 personality ptr @__gxx_personality_v0 {
  %4 = alloca %"class.cvc5::internal::NodeTemplate.0", align 8
  %5 = load ptr, ptr %2, align 8, !tbaa !16
  %6 = getelementptr inbounds nuw i8, ptr %5, i64 8
  %7 = load i64, ptr %6, align 8
  %8 = and i64 %7, 1023
  %9 = icmp eq i64 %8, 36
  br i1 %9, label %10, label %11

10:                                               ; preds = %3
  tail call void @_ZN4cvc58internal11NodeManager11integerTypeEv(ptr dead_on_unwind writable sret(%"class.cvc5::internal::TypeNode") align 8 %0, ptr noundef nonnull align 8 dereferenceable(3560) %1)
  br label %30

11:                                               ; preds = %3
  call void @llvm.lifetime.start.p0(i64 8, ptr nonnull %4) #18
  call void @_ZNK4cvc58internal12NodeTemplateILb0EE11getOperatorEv(ptr dead_on_unwind nonnull writable sret(%"class.cvc5::internal::NodeTemplate.0") align 8 %4, ptr noundef nonnull align 8 dereferenceable(8) %2)
  %12 = load ptr, ptr %4, align 8, !tbaa !14
  %13 = invoke noundef nonnull align 4 dereferenceable(4) ptr @_ZNK4cvc58internal4expr9NodeValue8getConstINS0_14IntToBitVectorEEERKT_v(ptr noundef nonnull align 8 dereferenceable(24) %12)
          to label %_ZNK4cvc58internal12NodeTemplateILb1EE8getConstINS0_14IntToBitVectorEEERKT_v.exit unwind label %28

_ZNK4cvc58internal12NodeTemplateILb1EE8getConstINS0_14IntToBitVectorEEERKT_v.exit: ; preds = %11
  %14 = load i32, ptr %13, align 4, !tbaa !174
  %15 = load ptr, ptr %4, align 8, !tbaa !14
  %16 = load i64, ptr %15, align 8
  %17 = and i64 %16, 1152920405095219200
  %.not.i.i = icmp eq i64 %17, 1152920405095219200
  br i1 %.not.i.i, label %_ZN4cvc58internal12NodeTemplateILb1EED2Ev.exit, label %18, !prof !13

18:                                               ; preds = %_ZNK4cvc58internal12NodeTemplateILb1EE8getConstINS0_14IntToBitVectorEEERKT_v.exit
  %19 = add i64 %16, 1152920405095219200
  %20 = and i64 %19, 1152920405095219200
  %21 = and i64 %16, -1152920405095219201
  %22 = or disjoint i64 %20, %21
  store i64 %22, ptr %15, align 8
  %23 = icmp eq i64 %20, 0
  br i1 %23, label %24, label %_ZN4cvc58internal12NodeTemplateILb1EED2Ev.exit, !prof !13

24:                                               ; preds = %18
  invoke void @_ZN4cvc58internal4expr9NodeValue15markForDeletionEv(ptr noundef nonnull align 8 dereferenceable(24) %15)
          to label %_ZN4cvc58internal12NodeTemplateILb1EED2Ev.exit unwind label %25

25:                                               ; preds = %24
  %26 = landingpad { ptr, i32 }
          catch ptr null
  %27 = extractvalue { ptr, i32 } %26, 0
  call void @__clang_call_terminate(ptr %27) #19
  unreachable

_ZN4cvc58internal12NodeTemplateILb1EED2Ev.exit:   ; preds = %_ZNK4cvc58internal12NodeTemplateILb1EE8getConstINS0_14IntToBitVectorEEERKT_v.exit, %18, %24
  call void @llvm.lifetime.end.p0(i64 8, ptr nonnull %4) #18
  call void @_ZN4cvc58internal11NodeManager15mkBitVectorTypeEj(ptr dead_on_unwind writable sret(%"class.cvc5::internal::TypeNode") align 8 %0, ptr noundef nonnull align 8 dereferenceable(3560) %1, i32 noundef %14)
  br label %30

28:                                               ; preds = %11
  %29 = landingpad { ptr, i32 }
          cleanup
  call void @_ZN4cvc58internal12NodeTemplateILb1EED2Ev(ptr noundef nonnull align 8 dereferenceable(8) %4) #18
  call void @llvm.lifetime.end.p0(i64 8, ptr nonnull %4) #18
  resume { ptr, i32 } %29

30:                                               ; preds = %_ZN4cvc58internal12NodeTemplateILb1EED2Ev.exit, %10
  ret void
}